target datalayout = "e-m:e-p270:32:32-p271:32:32-p272:64:64-i64:64-i128:128-f80:128-n8:16:32:64-S128"
target triple = "x86_64-pc-linux-gnu"

%struct.engine_st = type { ptr, ptr, ptr, ptr, ptr, ptr, ptr, ptr, ptr, ptr, ptr, ptr, ptr, ptr, ptr, ptr, ptr, ptr, ptr, i32, %struct.CRYPTO_REF_COUNT, i32, %struct.crypto_ex_data_st, ptr, ptr, ptr, ptr, ptr }
%struct.CRYPTO_REF_COUNT = type { i32 }
%struct.crypto_ex_data_st = type { ptr, ptr }

; Function Attrs: nounwind uwtable
define void @engine_pkey_asn1_meths_free(ptr noundef %0) #0 {
  %2 = alloca ptr, align 8
  %3 = alloca i32, align 4
  %4 = alloca ptr, align 8
  %5 = alloca ptr, align 8
  %6 = alloca i32, align 4
  store ptr %0, ptr %2, align 8, !tbaa !3
  call void @llvm.lifetime.start.p0(i64 4, ptr %3) #5
  call void @llvm.lifetime.start.p0(i64 8, ptr %4) #5
  %7 = load ptr, ptr %2, align 8, !tbaa !3
  %8 = getelementptr inbounds nuw %struct.engine_st, ptr %7, i32 0, i32 10
  %9 = load ptr, ptr %8, align 8, !tbaa !8
  %10 = icmp ne ptr %9, null
  br i1 %10, label %11, label %40

11:                                               ; preds = %1
  call void @llvm.lifetime.start.p0(i64 8, ptr %5) #5
  call void @llvm.lifetime.start.p0(i64 4, ptr %6) #5
  %12 = load ptr, ptr %2, align 8, !tbaa !3
  %13 = getelementptr inbounds nuw %struct.engine_st, ptr %12, i32 0, i32 10
  %14 = load ptr, ptr %13, align 8, !tbaa !8
  %15 = load ptr, ptr %2, align 8, !tbaa !3
  %16 = call i32 %14(ptr noundef %15, ptr noundef null, ptr noundef %5, i32 noundef 0)
  store i32 %16, ptr %6, align 4, !tbaa !22
  store i32 0, ptr %3, align 4, !tbaa !22
  br label %17

17:                                               ; preds = %36, %11
  %18 = load i32, ptr %3, align 4, !tbaa !22
  %19 = load i32, ptr %6, align 4, !tbaa !22
  %20 = icmp slt i32 %18, %19
  br i1 %20, label %21, label %39

21:                                               ; preds = %17
  %22 = load ptr, ptr %2, align 8, !tbaa !3
  %23 = getelementptr inbounds nuw %struct.engine_st, ptr %22, i32 0, i32 10
  %24 = load ptr, ptr %23, align 8, !tbaa !8
  %25 = load ptr, ptr %2, align 8, !tbaa !3
  %26 = load ptr, ptr %5, align 8, !tbaa !23
  %27 = load i32, ptr %3, align 4, !tbaa !22
  %28 = sext i32 %27 to i64
  %29 = getelementptr inbounds i32, ptr %26, i64 %28
  %30 = load i32, ptr %29, align 4, !tbaa !22
  %31 = call i32 %24(ptr noundef %25, ptr noundef %4, ptr noundef null, i32 noundef %30)
  %32 = icmp ne i32 %31, 0
  br i1 %32, label %33, label %35

33:                                               ; preds = %21
  %34 = load ptr, ptr %4, align 8, !tbaa !28
  call void @EVP_PKEY_asn1_free(ptr noundef %34)
  br label %35

35:                                               ; preds = %33, %21
  br label %36

36:                                               ; preds = %35
  %37 = load i32, ptr %3, align 4, !tbaa !22
  %38 = add nsw i32 %37, 1
  store i32 %38, ptr %3, align 4, !tbaa !22
  br label %17, !llvm.loop !30

39:                                               ; preds = %17
  call void @llvm.lifetime.end.p0(i64 4, ptr %6) #5
  call void @llvm.lifetime.end.p0(i64 8, ptr %5) #5
  br label %40

40:                                               ; preds = %39, %1
  call void @llvm.lifetime.end.p0(i64 8, ptr %4) #5
  call void @llvm.lifetime.end.p0(i64 4, ptr %3) #5
  ret void
}