; Function Attrs: nounwind uwtable
define void @engine_pkey_asn1_meths_free(ptr noundef %0) local_unnamed_addr #0 {
  %2 = alloca ptr, align 8
  %3 = alloca ptr, align 8
  call void @llvm.lifetime.start.p0(i64 8, ptr nonnull %2) #7
  %4 = getelementptr inbounds nuw i8, ptr %0, i64 80
  %5 = load ptr, ptr %4, align 8, !tbaa !3
  %.not = icmp eq ptr %5, null
  br i1 %.not, label %17, label %6

6:                                                ; preds = %1
  call void @llvm.lifetime.start.p0(i64 8, ptr nonnull %3) #7
  %7 = call i32 %5(ptr noundef nonnull %0, ptr noundef null, ptr noundef nonnull %3, i32 noundef 0) #7
  %8 = icmp sgt i32 %7, 0
  br i1 %8, label %.lr.ph.preheader, label %._crit_edge

.lr.ph.preheader:                                 ; preds = %6
  %wide.trip.count = zext nneg i32 %7 to i64
  br label %.lr.ph

.lr.ph:                                           ; preds = %.lr.ph.preheader, %16
  %indvars.iv = phi i64 [ 0, %.lr.ph.preheader ], [ %indvars.iv.next, %16 ]
  %9 = load ptr, ptr %4, align 8, !tbaa !3
  %10 = load ptr, ptr %3, align 8, !tbaa !21
  %11 = getelementptr inbounds nuw i32, ptr %10, i64 %indvars.iv
  %12 = load i32, ptr %11, align 4, !tbaa !27
  %13 = call i32 %9(ptr noundef nonnull %0, ptr noundef nonnull %2, ptr noundef null, i32 noundef %12) #7
  %.not8 = icmp eq i32 %13, 0
  br i1 %.not8, label %16, label %14

14:                                               ; preds = %.lr.ph
  %15 = load ptr, ptr %2, align 8, !tbaa !25
  call void @EVP_PKEY_asn1_free(ptr noundef %15) #7
  br label %16

16:                                               ; preds = %.lr.ph, %14
  %indvars.iv.next = add nuw nsw i64 %indvars.iv, 1
  %exitcond.not = icmp eq i64 %indvars.iv.next, %wide.trip.count
  br i1 %exitcond.not, label %._crit_edge, label %.lr.ph, !llvm.loop !28

._crit_edge:                                      ; preds = %16, %6
  call void @llvm.lifetime.end.p0(i64 8, ptr nonnull %3) #7
  br label %17

17:                                               ; preds = %._crit_edge, %1
  call void @llvm.lifetime.end.p0(i64 8, ptr nonnull %2) #7
  ret void
}